target datalayout = "e-m:e-p270:32:32-p271:32:32-p272:64:64-i64:64-i128:128-f80:128-n8:16:32:64-S128"
target triple = "x86_64-pc-linux-gnu"

%struct.sat_solver3_t = type { i32, i32, i32, i32, %struct.Sat_Mem_t_, i32, i32, ptr, ptr, i32, i32, i32, i32, i32, i64, i64, i64, ptr, ptr, i32, i32, %struct.veci_t, ptr, i32, ptr, ptr, ptr, ptr, ptr, ptr, ptr, ptr, %struct.veci_t, %struct.veci_t, %struct.veci_t, %struct.veci_t, ptr, %struct.veci_t, i32, i32, i32, double, double, i32, i32, %struct.stats_t, i32, i32, i32, i32, i32, i64, i64, i64, %struct.veci_t, ptr, i32, i32, i32, %struct.veci_t, %struct.veci_t, i32, i32, i32, ptr, ptr, i32, ptr, i32, i32, %struct.veci_t, ptr, ptr }
%struct.Sat_Mem_t_ = type { [2 x i32], [2 x i32], [2 x i32], [2 x i32], i32, i32, i32, i32, ptr }
%struct.stats_t = type { i32, i32, i32, i64, i64, i64, i64, i64, i64, i64 }
%struct.veci_t = type { i32, i32, ptr }

@stdout = external global ptr, align 8
@.str.13 = private unnamed_addr constant [51 x i8] c"Failed to realloc memory from %.1f MB to %.1f MB.\0A\00", align 1

; Function Attrs: inlinehint nounwind uwtable
define internal ptr @veci_begin(ptr noundef %0) #1 {
  %2 = alloca ptr, align 8
  store ptr %0, ptr %2, align 8, !tbaa !45
  %3 = load ptr, ptr %2, align 8, !tbaa !45
  %4 = getelementptr inbounds nuw %struct.veci_t, ptr %3, i32 0, i32 2
  %5 = load ptr, ptr %4, align 8, !tbaa !48
  ret ptr %5
}

; Function Attrs: inlinehint nounwind uwtable
define internal void @order_update(ptr noundef %0, i32 noundef %1) #1 {
  %3 = alloca ptr, align 8
  %4 = alloca i32, align 4
  %5 = alloca ptr, align 8
  %6 = alloca ptr, align 8
  %7 = alloca i32, align 4
  %8 = alloca i32, align 4
  %9 = alloca i32, align 4
  store ptr %0, ptr %3, align 8, !tbaa !3
  store i32 %1, ptr %4, align 4, !tbaa !8
  call void @llvm.lifetime.start.p0(i64 8, ptr %5) #13
  %10 = load ptr, ptr %3, align 8, !tbaa !3
  %11 = getelementptr inbounds nuw %struct.sat_solver3_t, ptr %10, i32 0, i32 29
  %12 = load ptr, ptr %11, align 8, !tbaa !35
  store ptr %12, ptr %5, align 8, !tbaa !26
  call void @llvm.lifetime.start.p0(i64 8, ptr %6) #13
  %13 = load ptr, ptr %3, align 8, !tbaa !3
  %14 = getelementptr inbounds nuw %struct.sat_solver3_t, ptr %13, i32 0, i32 34
  %15 = call ptr @veci_begin(ptr noundef %14)
  store ptr %15, ptr %6, align 8, !tbaa !26
  call void @llvm.lifetime.start.p0(i64 4, ptr %7) #13
  %16 = load ptr, ptr %5, align 8, !tbaa !26
  %17 = load i32, ptr %4, align 4, !tbaa !8
  %18 = sext i32 %17 to i64
  %19 = getelementptr inbounds i32, ptr %16, i64 %18
  %20 = load i32, ptr %19, align 4, !tbaa !8
  store i32 %20, ptr %7, align 4, !tbaa !8
  call void @llvm.lifetime.start.p0(i64 4, ptr %8) #13
  %21 = load ptr, ptr %6, align 8, !tbaa !26
  %22 = load i32, ptr %7, align 4, !tbaa !8
  %23 = sext i32 %22 to i64
  %24 = getelementptr inbounds i32, ptr %21, i64 %23
  %25 = load i32, ptr %24, align 4, !tbaa !8
  store i32 %25, ptr %8, align 4, !tbaa !8
  call void @llvm.lifetime.start.p0(i64 4, ptr %9) #13
  %26 = load i32, ptr %7, align 4, !tbaa !8
  %27 = sub nsw i32 %26, 1
  %28 = sdiv i32 %27, 2
  store i32 %28, ptr %9, align 4, !tbaa !8
  br label %29

29:                                               ; preds = %54, %2
  %30 = load i32, ptr %7, align 4, !tbaa !8
  %31 = icmp ne i32 %30, 0
  br i1 %31, label %32, label %52

32:                                               ; preds = %29
  %33 = load ptr, ptr %3, align 8, !tbaa !3
  %34 = getelementptr inbounds nuw %struct.sat_solver3_t, ptr %33, i32 0, i32 17
  %35 = load ptr, ptr %34, align 8, !tbaa !28
  %36 = load i32, ptr %8, align 4, !tbaa !8
  %37 = sext i32 %36 to i64
  %38 = getelementptr inbounds i64, ptr %35, i64 %37
  %39 = load i64, ptr %38, align 8, !tbaa !29
  %40 = load ptr, ptr %3, align 8, !tbaa !3
  %41 = getelementptr inbounds nuw %struct.sat_solver3_t, ptr %40, i32 0, i32 17
  %42 = load ptr, ptr %41, align 8, !tbaa !28
  %43 = load ptr, ptr %6, align 8, !tbaa !26
  %44 = load i32, ptr %9, align 4, !tbaa !8
  %45 = sext i32 %44 to i64
  %46 = getelementptr inbounds i32, ptr %43, i64 %45
  %47 = load i32, ptr %46, align 4, !tbaa !8
  %48 = sext i32 %47 to i64
  %49 = getelementptr inbounds i64, ptr %42, i64 %48
  %50 = load i64, ptr %49, align 8, !tbaa !29
  %51 = icmp ugt i64 %39, %50
  br label %52

52:                                               ; preds = %32, %29
  %53 = phi i1 [ false, %29 ], [ %51, %32 ]
  br i1 %53, label %54, label %77

54:                                               ; preds = %52
  %55 = load ptr, ptr %6, align 8, !tbaa !26
  %56 = load i32, ptr %9, align 4, !tbaa !8
  %57 = sext i32 %56 to i64
  %58 = getelementptr inbounds i32, ptr %55, i64 %57
  %59 = load i32, ptr %58, align 4, !tbaa !8
  %60 = load ptr, ptr %6, align 8, !tbaa !26
  %61 = load i32, ptr %7, align 4, !tbaa !8
  %62 = sext i32 %61 to i64
  %63 = getelementptr inbounds i32, ptr %60, i64 %62
  store i32 %59, ptr %63, align 4, !tbaa !8
  %64 = load i32, ptr %7, align 4, !tbaa !8
  %65 = load ptr, ptr %5, align 8, !tbaa !26
  %66 = load ptr, ptr %6, align 8, !tbaa !26
  %67 = load i32, ptr %7, align 4, !tbaa !8
  %68 = sext i32 %67 to i64
  %69 = getelementptr inbounds i32, ptr %66, i64 %68
  %70 = load i32, ptr %69, align 4, !tbaa !8
  %71 = sext i32 %70 to i64
  %72 = getelementptr inbounds i32, ptr %65, i64 %71
  store i32 %64, ptr %72, align 4, !tbaa !8
  %73 = load i32, ptr %9, align 4, !tbaa !8
  store i32 %73, ptr %7, align 4, !tbaa !8
  %74 = load i32, ptr %7, align 4, !tbaa !8
  %75 = sub nsw i32 %74, 1
  %76 = sdiv i32 %75, 2
  store i32 %76, ptr %9, align 4, !tbaa !8
  br label %29, !llvm.loop !36

77:                                               ; preds = %52
  %78 = load i32, ptr %8, align 4, !tbaa !8
  %79 = load ptr, ptr %6, align 8, !tbaa !26
  %80 = load i32, ptr %7, align 4, !tbaa !8
  %81 = sext i32 %80 to i64
  %82 = getelementptr inbounds i32, ptr %79, i64 %81
  store i32 %78, ptr %82, align 4, !tbaa !8
  %83 = load i32, ptr %7, align 4, !tbaa !8
  %84 = load ptr, ptr %5, align 8, !tbaa !26
  %85 = load i32, ptr %8, align 4, !tbaa !8
  %86 = sext i32 %85 to i64
  %87 = getelementptr inbounds i32, ptr %84, i64 %86
  store i32 %83, ptr %87, align 4, !tbaa !8
  call void @llvm.lifetime.end.p0(i64 4, ptr %9) #13
  call void @llvm.lifetime.end.p0(i64 4, ptr %8) #13
  call void @llvm.lifetime.end.p0(i64 4, ptr %7) #13
  call void @llvm.lifetime.end.p0(i64 8, ptr %6) #13
  call void @llvm.lifetime.end.p0(i64 8, ptr %5) #13
  ret void
}

; Function Attrs: inlinehint nounwind uwtable
define internal void @veci_push(ptr noundef %0, i32 noundef %1) #1 {
  %3 = alloca ptr, align 8
  %4 = alloca i32, align 4
  %5 = alloca i32, align 4
  store ptr %0, ptr %3, align 8, !tbaa !45
  store i32 %1, ptr %4, align 4, !tbaa !8
  %6 = load ptr, ptr %3, align 8, !tbaa !45
  %7 = getelementptr inbounds nuw %struct.veci_t, ptr %6, i32 0, i32 1
  %8 = load i32, ptr %7, align 4, !tbaa !46
  %9 = load ptr, ptr %3, align 8, !tbaa !45
  %10 = getelementptr inbounds nuw %struct.veci_t, ptr %9, i32 0, i32 0
  %11 = load i32, ptr %10, align 8, !tbaa !47
  %12 = icmp eq i32 %8, %11
  br i1 %12, label %13, label %74

13:                                               ; preds = %2
  call void @llvm.lifetime.start.p0(i64 4, ptr %5) #13
  %14 = load ptr, ptr %3, align 8, !tbaa !45
  %15 = getelementptr inbounds nuw %struct.veci_t, ptr %14, i32 0, i32 0
  %16 = load i32, ptr %15, align 8, !tbaa !47
  %17 = icmp slt i32 %16, 4
  br i1 %17, label %18, label %23

18:                                               ; preds = %13
  %19 = load ptr, ptr %3, align 8, !tbaa !45
  %20 = getelementptr inbounds nuw %struct.veci_t, ptr %19, i32 0, i32 0
  %21 = load i32, ptr %20, align 8, !tbaa !47
  %22 = mul nsw i32 %21, 2
  br label %29

23:                                               ; preds = %13
  %24 = load ptr, ptr %3, align 8, !tbaa !45
  %25 = getelementptr inbounds nuw %struct.veci_t, ptr %24, i32 0, i32 0
  %26 = load i32, ptr %25, align 8, !tbaa !47
  %27 = sdiv i32 %26, 2
  %28 = mul nsw i32 %27, 3
  br label %29

29:                                               ; preds = %23, %18
  %30 = phi i32 [ %22, %18 ], [ %28, %23 ]
  store i32 %30, ptr %5, align 4, !tbaa !8
  %31 = load ptr, ptr %3, align 8, !tbaa !45
  %32 = getelementptr inbounds nuw %struct.veci_t, ptr %31, i32 0, i32 2
  %33 = load ptr, ptr %32, align 8, !tbaa !48
  %34 = icmp ne ptr %33, null
  br i1 %34, label %35, label %43

35:                                               ; preds = %29
  %36 = load ptr, ptr %3, align 8, !tbaa !45
  %37 = getelementptr inbounds nuw %struct.veci_t, ptr %36, i32 0, i32 2
  %38 = load ptr, ptr %37, align 8, !tbaa !48
  %39 = load i32, ptr %5, align 4, !tbaa !8
  %40 = sext i32 %39 to i64
  %41 = mul i64 4, %40
  %42 = call ptr @realloc(ptr noundef %38, i64 noundef %41) #14
  br label %48

43:                                               ; preds = %29
  %44 = load i32, ptr %5, align 4, !tbaa !8
  %45 = sext i32 %44 to i64
  %46 = mul i64 4, %45
  %47 = call noalias ptr @malloc(i64 noundef %46) #15
  br label %48

48:                                               ; preds = %43, %35
  %49 = phi ptr [ %42, %35 ], [ %47, %43 ]
  %50 = load ptr, ptr %3, align 8, !tbaa !45
  %51 = getelementptr inbounds nuw %struct.veci_t, ptr %50, i32 0, i32 2
  store ptr %49, ptr %51, align 8, !tbaa !48
  %52 = load ptr, ptr %3, align 8, !tbaa !45
  %53 = getelementptr inbounds nuw %struct.veci_t, ptr %52, i32 0, i32 2
  %54 = load ptr, ptr %53, align 8, !tbaa !48
  %55 = icmp eq ptr %54, null
  br i1 %55, label %56, label %70

56:                                               ; preds = %48
  %57 = load ptr, ptr %3, align 8, !tbaa !45
  %58 = getelementptr inbounds nuw %struct.veci_t, ptr %57, i32 0, i32 0
  %59 = load i32, ptr %58, align 8, !tbaa !47
  %60 = sitofp i32 %59 to double
  %61 = fmul double 1.000000e+00, %60
  %62 = fdiv double %61, 0x4130000000000000
  %63 = load i32, ptr %5, align 4, !tbaa !8
  %64 = sitofp i32 %63 to double
  %65 = fmul double 1.000000e+00, %64
  %66 = fdiv double %65, 0x4130000000000000
  %67 = call i32 (ptr, ...) @printf(ptr noundef @.str.13, double noundef %62, double noundef %66)
  %68 = load ptr, ptr @stdout, align 8, !tbaa !49
  %69 = call i32 @fflush(ptr noundef %68)
  br label %70

70:                                               ; preds = %56, %48
  %71 = load i32, ptr %5, align 4, !tbaa !8
  %72 = load ptr, ptr %3, align 8, !tbaa !45
  %73 = getelementptr inbounds nuw %struct.veci_t, ptr %72, i32 0, i32 0
  store i32 %71, ptr %73, align 8, !tbaa !47
  call void @llvm.lifetime.end.p0(i64 4, ptr %5) #13
  br label %74

74:                                               ; preds = %70, %2
  %75 = load i32, ptr %4, align 4, !tbaa !8
  %76 = load ptr, ptr %3, align 8, !tbaa !45
  %77 = getelementptr inbounds nuw %struct.veci_t, ptr %76, i32 0, i32 2
  %78 = load ptr, ptr %77, align 8, !tbaa !48
  %79 = load ptr, ptr %3, align 8, !tbaa !45
  %80 = getelementptr inbounds nuw %struct.veci_t, ptr %79, i32 0, i32 1
  %81 = load i32, ptr %80, align 4, !tbaa !46
  %82 = add nsw i32 %81, 1
  store i32 %82, ptr %80, align 4, !tbaa !46
  %83 = sext i32 %81 to i64
  %84 = getelementptr inbounds i32, ptr %78, i64 %83
  store i32 %75, ptr %84, align 4, !tbaa !8
  ret void
}

; Function Attrs: inlinehint nounwind uwtable
define internal i32 @veci_size(ptr noundef %0) #1 {
  %2 = alloca ptr, align 8
  store ptr %0, ptr %2, align 8, !tbaa !45
  %3 = load ptr, ptr %2, align 8, !tbaa !45
  %4 = getelementptr inbounds nuw %struct.veci_t, ptr %3, i32 0, i32 1
  %5 = load i32, ptr %4, align 4, !tbaa !46
  ret i32 %5
}

; Function Attrs: inlinehint nounwind uwtable
define internal void @order_unassigned(ptr noundef %0, i32 noundef %1) #1 {
  %3 = alloca ptr, align 8
  %4 = alloca i32, align 4
  %5 = alloca ptr, align 8
  store ptr %0, ptr %3, align 8, !tbaa !3
  store i32 %1, ptr %4, align 4, !tbaa !8
  call void @llvm.lifetime.start.p0(i64 8, ptr %5) #13
  %6 = load ptr, ptr %3, align 8, !tbaa !3
  %7 = getelementptr inbounds nuw %struct.sat_solver3_t, ptr %6, i32 0, i32 29
  %8 = load ptr, ptr %7, align 8, !tbaa !35
  store ptr %8, ptr %5, align 8, !tbaa !26
  %9 = load ptr, ptr %5, align 8, !tbaa !26
  %10 = load i32, ptr %4, align 4, !tbaa !8
  %11 = sext i32 %10 to i64
  %12 = getelementptr inbounds i32, ptr %9, i64 %11
  %13 = load i32, ptr %12, align 4, !tbaa !8
  %14 = icmp eq i32 %13, -1
  br i1 %14, label %15, label %28

15:                                               ; preds = %2
  %16 = load ptr, ptr %3, align 8, !tbaa !3
  %17 = getelementptr inbounds nuw %struct.sat_solver3_t, ptr %16, i32 0, i32 34
  %18 = call i32 @veci_size(ptr noundef %17)
  %19 = load ptr, ptr %5, align 8, !tbaa !26
  %20 = load i32, ptr %4, align 4, !tbaa !8
  %21 = sext i32 %20 to i64
  %22 = getelementptr inbounds i32, ptr %19, i64 %21
  store i32 %18, ptr %22, align 4, !tbaa !8
  %23 = load ptr, ptr %3, align 8, !tbaa !3
  %24 = getelementptr inbounds nuw %struct.sat_solver3_t, ptr %23, i32 0, i32 34
  %25 = load i32, ptr %4, align 4, !tbaa !8
  call void @veci_push(ptr noundef %24, i32 noundef %25)
  %26 = load ptr, ptr %3, align 8, !tbaa !3
  %27 = load i32, ptr %4, align 4, !tbaa !8
  call void @order_update(ptr noundef %26, i32 noundef %27)
  br label %28

28:                                               ; preds = %15, %2
  call void @llvm.lifetime.end.p0(i64 8, ptr %5) #13
  ret void
}