; Function Attrs: inlinehint nounwind uwtable
define internal fastcc void @order_unassigned(ptr noundef captures(none) %0, i32 noundef range(i32 -1073741824, 1073741824) %1) unnamed_addr #13 {
  %3 = getelementptr inbounds nuw i8, ptr %0, i64 240
  %4 = load ptr, ptr %3, align 8, !tbaa !27
  %5 = sext i32 %1 to i64
  %6 = getelementptr inbounds i32, ptr %4, i64 %5
  %7 = load i32, ptr %6, align 4, !tbaa !29
  %8 = icmp eq i32 %7, -1
  br i1 %8, label %9, label %73

9:                                                ; preds = %2
  %10 = getelementptr inbounds nuw i8, ptr %0, i64 296
  %11 = getelementptr i8, ptr %0, i64 300
  %.val = load i32, ptr %11, align 4, !tbaa !34
  store i32 %.val, ptr %6, align 4, !tbaa !29
  %12 = load i32, ptr %10, align 8, !tbaa !35
  %13 = icmp eq i32 %.val, %12
  br i1 %13, label %14, label %veci_push.exit

14:                                               ; preds = %9
  %15 = icmp slt i32 %.val, 4
  %16 = shl nsw i32 %.val, 1
  %17 = lshr i32 %.val, 1
  %18 = mul nuw nsw i32 %17, 3
  %19 = select i1 %15, i32 %16, i32 %18
  %20 = getelementptr inbounds nuw i8, ptr %0, i64 304
  %21 = load ptr, ptr %20, align 8, !tbaa !28
  %.not.i = icmp eq ptr %21, null
  %22 = sext i32 %19 to i64
  %23 = shl nsw i64 %22, 2
  br i1 %.not.i, label %26, label %24

24:                                               ; preds = %14
  %25 = tail call ptr @realloc(ptr noundef nonnull %21, i64 noundef %23) #28
  br label %28

26:                                               ; preds = %14
  %27 = tail call noalias ptr @malloc(i64 noundef %23) #29
  br label %28

28:                                               ; preds = %26, %24
  %29 = phi ptr [ %25, %24 ], [ %27, %26 ]
  store ptr %29, ptr %20, align 8, !tbaa !28
  %30 = icmp eq ptr %29, null
  br i1 %30, label %31, label %40

31:                                               ; preds = %28
  %32 = load i32, ptr %10, align 8, !tbaa !35
  %33 = sitofp i32 %32 to double
  %34 = fmul double %33, 0x3EB0000000000000
  %35 = sitofp i32 %19 to double
  %36 = fmul double %35, 0x3EB0000000000000
  %37 = tail call i32 (ptr, ...) @printf(ptr noundef nonnull dereferenceable(1) @.str.13, double noundef %34, double noundef %36)
  %38 = load ptr, ptr @stdout, align 8, !tbaa !36
  %39 = tail call i32 @fflush(ptr noundef %38)
  br label %40

40:                                               ; preds = %31, %28
  store i32 %19, ptr %10, align 8, !tbaa !35
  %.pre.i = load i32, ptr %11, align 4, !tbaa !34
  %.pre = load ptr, ptr %3, align 8, !tbaa !27
  br label %veci_push.exit

veci_push.exit:                                   ; preds = %9, %40
  %41 = phi ptr [ %.pre, %40 ], [ %4, %9 ]
  %42 = phi i32 [ %.pre.i, %40 ], [ %.val, %9 ]
  %43 = getelementptr i8, ptr %0, i64 304
  %44 = load ptr, ptr %43, align 8, !tbaa !28
  %45 = add nsw i32 %42, 1
  store i32 %45, ptr %11, align 4, !tbaa !34
  %46 = sext i32 %42 to i64
  %47 = getelementptr inbounds i32, ptr %44, i64 %46
  store i32 %1, ptr %47, align 4, !tbaa !29
  %48 = getelementptr inbounds i32, ptr %41, i64 %5
  %49 = load i32, ptr %48, align 4, !tbaa !29
  %50 = sext i32 %49 to i64
  %51 = getelementptr inbounds i32, ptr %44, i64 %50
  %52 = load i32, ptr %51, align 4, !tbaa !29
  %.not31.i = icmp eq i32 %49, 0
  br i1 %.not31.i, label %..critedge_crit_edge.i, label %.lr.ph.i

..critedge_crit_edge.i:                           ; preds = %veci_push.exit
  %.pre.i10 = sext i32 %52 to i64
  br label %order_update.exit

.lr.ph.i:                                         ; preds = %veci_push.exit
  %53 = getelementptr inbounds nuw i8, ptr %0, i64 144
  %54 = load ptr, ptr %53, align 8, !tbaa !24
  %55 = sext i32 %52 to i64
  %56 = getelementptr inbounds i64, ptr %54, i64 %55
  %57 = load i64, ptr %56, align 8, !tbaa !25
  br label %58

58:                                               ; preds = %66, %.lr.ph.i
  %.02832.i = phi i32 [ %49, %.lr.ph.i ], [ %.033.i, %66 ]
  %.033.in.i = add nsw i32 %.02832.i, -1
  %.033.i = sdiv i32 %.033.in.i, 2
  %59 = sext i32 %.033.i to i64
  %60 = getelementptr inbounds i32, ptr %44, i64 %59
  %61 = load i32, ptr %60, align 4, !tbaa !29
  %62 = sext i32 %61 to i64
  %63 = getelementptr inbounds i64, ptr %54, i64 %62
  %64 = load i64, ptr %63, align 8, !tbaa !25
  %65 = icmp ugt i64 %57, %64
  br i1 %65, label %66, label %order_update.exit

66:                                               ; preds = %58
  %67 = sext i32 %.02832.i to i64
  %68 = getelementptr inbounds i32, ptr %44, i64 %67
  store i32 %61, ptr %68, align 4, !tbaa !29
  %69 = getelementptr inbounds i32, ptr %41, i64 %62
  store i32 %.02832.i, ptr %69, align 4, !tbaa !29
  %.not.i9 = icmp ult i32 %.02832.i, 3
  br i1 %.not.i9, label %order_update.exit, label %58, !llvm.loop !30

order_update.exit:                                ; preds = %58, %66, %..critedge_crit_edge.i
  %.pre-phi.i = phi i64 [ %.pre.i10, %..critedge_crit_edge.i ], [ %55, %66 ], [ %55, %58 ]
  %.028.lcssa.i = phi i32 [ 0, %..critedge_crit_edge.i ], [ %.02832.i, %58 ], [ %.033.i, %66 ]
  %70 = sext i32 %.028.lcssa.i to i64
  %71 = getelementptr inbounds i32, ptr %44, i64 %70
  store i32 %52, ptr %71, align 4, !tbaa !29
  %72 = getelementptr inbounds i32, ptr %41, i64 %.pre-phi.i
  store i32 %.028.lcssa.i, ptr %72, align 4, !tbaa !29
  br label %73

73:                                               ; preds = %order_update.exit, %2
  ret void
}